; Function Attrs: mustprogress uwtable
define hidden noundef ptr @_Z6concatP15model_converterS0_(ptr noundef %mc1, ptr noundef %mc2) local_unnamed_addr #3 personality ptr @__gxx_personality_v0 {
entry:
  %cmp = icmp eq ptr %mc1, null
  br i1 %cmp, label %return, label %if.end

if.end:                                           ; preds = %entry
  %cmp1 = icmp eq ptr %mc2, null
  br i1 %cmp1, label %return, label %_ZN22concat_model_converterC2EP15model_converterS1_.exit

_ZN22concat_model_converterC2EP15model_converterS1_.exit: ; preds = %if.end
  %call = tail call noalias noundef ptr @_ZN6memory8allocateEm(i64 noundef 48)
  %m_ref_count.i.i.i.i = getelementptr inbounds i8, ptr %call, i64 8
  store i32 0, ptr %m_ref_count.i.i.i.i, align 8
  %m_env.i.i.i = getelementptr inbounds i8, ptr %call, i64 16
  store ptr null, ptr %m_env.i.i.i, align 8
  %m_completion.i.i.i = getelementptr inbounds i8, ptr %call, i64 24
  store i8 1, ptr %m_completion.i.i.i, align 8
  %m_c1.i.i = getelementptr inbounds i8, ptr %call, i64 32
  store ptr %mc1, ptr %m_c1.i.i, align 8
  %m_ref_count.i.i.i.i.i = getelementptr inbounds i8, ptr %mc1, i64 8
  %0 = load i32, ptr %m_ref_count.i.i.i.i.i, align 8
  %inc.i.i.i.i.i = add i32 %0, 1
  store i32 %inc.i.i.i.i.i, ptr %m_ref_count.i.i.i.i.i, align 8
  %m_c2.i.i = getelementptr inbounds i8, ptr %call, i64 40
  store ptr %mc2, ptr %m_c2.i.i, align 8
  %m_ref_count.i.i.i4.i.i = getelementptr inbounds i8, ptr %mc2, i64 8
  %1 = load i32, ptr %m_ref_count.i.i.i4.i.i, align 8
  %inc.i.i.i5.i.i = add i32 %1, 1
  store i32 %inc.i.i.i5.i.i, ptr %m_ref_count.i.i.i4.i.i, align 8
  store ptr getelementptr inbounds ({ [13 x ptr] }, ptr @_ZTV22concat_model_converter, i64 0, i32 0, i64 2), ptr %call, align 8
  br label %return

return:                                           ; preds = %if.end, %entry, %_ZN22concat_model_converterC2EP15model_converterS1_.exit
  %retval.0 = phi ptr [ %call, %_ZN22concat_model_converterC2EP15model_converterS1_.exit ], [ %mc2, %entry ], [ %mc1, %if.end ]
  ret ptr %retval.0
}